(lp1
(lp2
I301
aI107
aI0
aI0
aa(lp3
I437
aI199
aI0
aI0
aa(lp4
I307
aI175
aI0
aI0
aa(lp5
I359
aI166
aI0
aI0
aa(lp6
I333
aI151
aI0
aI0
aa(lp7
I240
aI157
aI0
aI0
aa(lp8
I194
aI126
aI0
aI0
aa(lp9
I-1
aI-1
aI-1
aI-1
aa(lp10
I364
aI119
aI0
aI0
aa(lp11
I326
aI152
aI0
aI0
aa.