(lp1
(lp2
I0
aI0
aI0
aI0
aa(lp3
I0
aI0
aI0
aI0
aa(lp4
I0
aI0
aI0
aI0
aa(lp5
I0
aI0
aI0
aI0
aa(lp6
I0
aI0
aI0
aI0
aa(lp7
I0
aI0
aI0
aI0
aa(lp8
I96
aI0
aI0
aI0
aa(lp9
I-1
aI-1
aI-1
aI-1
aa(lp10
I0
aI0
aI0
aI0
aa(lp11
I0
aI0
aI0
aI0
aa.